; Function Attrs: nounwind uwtable
define noundef ptr @Abc_NtkDupBox(ptr noundef %0, ptr noundef %1, i32 noundef %2) local_unnamed_addr #0 {
  %4 = tail call ptr @Abc_NtkDupObj(ptr noundef %0, ptr noundef %1, i32 noundef %2)
  %5 = getelementptr i8, ptr %1, i64 28
  %.val2328 = load i32, ptr %5, align 4, !tbaa !59
  %6 = icmp sgt i32 %.val2328, 0
  br i1 %6, label %.lr.ph, label %.critedge.preheader

.lr.ph:                                           ; preds = %3
  %7 = getelementptr i8, ptr %1, i64 32
  br label %11

.critedge.preheader:                              ; preds = %11, %3
  %8 = getelementptr i8, ptr %1, i64 44
  %.val30 = load i32, ptr %8, align 4, !tbaa !53
  %9 = icmp sgt i32 %.val30, 0
  br i1 %9, label %.lr.ph32, label %.critedge2

.lr.ph32:                                         ; preds = %.critedge.preheader
  %10 = getelementptr i8, ptr %1, i64 48
  br label %.critedge

11:                                               ; preds = %.lr.ph, %11
  %indvars.iv = phi i64 [ 0, %.lr.ph ], [ %indvars.iv.next, %11 ]
  %.val24 = load ptr, ptr %1, align 8, !tbaa !24
  %.val25 = load ptr, ptr %7, align 8, !tbaa !30
  %12 = getelementptr i8, ptr %.val24, i64 32
  %.val24.val = load ptr, ptr %12, align 8, !tbaa !31
  %13 = getelementptr i8, ptr %.val24.val, i64 8
  %.val24.val.val = load ptr, ptr %13, align 8, !tbaa !35
  %14 = getelementptr inbounds nuw i32, ptr %.val25, i64 %indvars.iv
  %15 = load i32, ptr %14, align 4, !tbaa !37
  %16 = sext i32 %15 to i64
  %17 = getelementptr inbounds ptr, ptr %.val24.val.val, i64 %16
  %18 = load ptr, ptr %17, align 8, !tbaa !36
  %19 = tail call ptr @Abc_NtkDupObj(ptr noundef %0, ptr noundef %18, i32 noundef %2)
  tail call void @Abc_ObjAddFanin(ptr noundef %4, ptr noundef %19) #10
  %indvars.iv.next = add nuw nsw i64 %indvars.iv, 1
  %.val23 = load i32, ptr %5, align 4, !tbaa !59
  %20 = sext i32 %.val23 to i64
  %21 = icmp slt i64 %indvars.iv.next, %20
  br i1 %21, label %11, label %.critedge.preheader, !llvm.loop !61

.critedge:                                        ; preds = %.lr.ph32, %.critedge
  %indvars.iv34 = phi i64 [ 0, %.lr.ph32 ], [ %indvars.iv.next35, %.critedge ]
  %.val26 = load ptr, ptr %1, align 8, !tbaa !24
  %.val27 = load ptr, ptr %10, align 8, !tbaa !29
  %22 = getelementptr i8, ptr %.val26, i64 32
  %.val26.val = load ptr, ptr %22, align 8, !tbaa !31
  %23 = getelementptr i8, ptr %.val26.val, i64 8
  %.val26.val.val = load ptr, ptr %23, align 8, !tbaa !35
  %24 = getelementptr inbounds nuw i32, ptr %.val27, i64 %indvars.iv34
  %25 = load i32, ptr %24, align 4, !tbaa !37
  %26 = sext i32 %25 to i64
  %27 = getelementptr inbounds ptr, ptr %.val26.val.val, i64 %26
  %28 = load ptr, ptr %27, align 8, !tbaa !36
  %29 = tail call ptr @Abc_NtkDupObj(ptr noundef %0, ptr noundef %28, i32 noundef %2)
  tail call void @Abc_ObjAddFanin(ptr noundef %29, ptr noundef %4) #10
  %indvars.iv.next35 = add nuw nsw i64 %indvars.iv34, 1
  %.val = load i32, ptr %8, align 4, !tbaa !53
  %30 = sext i32 %.val to i64
  %31 = icmp slt i64 %indvars.iv.next35, %30
  br i1 %31, label %.critedge, label %.critedge2, !llvm.loop !62

.critedge2:                                       ; preds = %.critedge, %.critedge.preheader
  ret ptr %4
}